; ModuleID = 'source-C-CXX/59/744.c'
source_filename = "source-C-CXX/59/744.c"
target datalayout = "e-m:e-p270:32:32-p271:32:32-p272:64:64-i64:64-f80:128-n8:16:32:64-S128"
target triple = "x86_64-pc-linux-gnu"

@.str = private unnamed_addr constant [3 x i8] c"%d\00", align 1
@.str.1 = private unnamed_addr constant [6 x i8] c"empty\00", align 1
@.str.2 = private unnamed_addr constant [7 x i8] c"%d %d\0A\00", align 1

; Function Attrs: nofree nounwind sspstrong uwtable
define dso_local i32 @main() local_unnamed_addr #0 {
  %1 = alloca i32, align 4
  %2 = alloca [10000 x i32], align 16
  %3 = bitcast i32* %1 to i8*
  call void @llvm.lifetime.start.p0i8(i64 4, i8* nonnull %3) #3
  %4 = bitcast [10000 x i32]* %2 to i8*
  call void @llvm.lifetime.start.p0i8(i64 40000, i8* nonnull %4) #3
  %5 = call i32 (i8*, ...) @__isoc99_scanf(i8* getelementptr inbounds ([3 x i8], [3 x i8]* @.str, i64 0, i64 0), i32* nonnull %1)
  %6 = load i32, i32* %1, align 4, !tbaa !5
  %7 = icmp slt i32 %6, 5
  br i1 %7, label %8, label %10

8:                                                ; preds = %0
  %9 = call i32 (i8*, ...) @printf(i8* nonnull dereferenceable(1) getelementptr inbounds ([6 x i8], [6 x i8]* @.str.1, i64 0, i64 0))
  br label %51

10:                                               ; preds = %0, %35
  %11 = phi i32 [ %37, %35 ], [ 3, %0 ]
  %12 = phi i32 [ %36, %35 ], [ 0, %0 ]
  %13 = add nsw i32 %11, -1
  br label %20

14:                                               ; preds = %35
  %15 = icmp sgt i32 %36, 1
  br i1 %15, label %16, label %51

16:                                               ; preds = %14
  %17 = zext i32 %36 to i64
  %18 = getelementptr inbounds [10000 x i32], [10000 x i32]* %2, i64 0, i64 0
  %19 = load i32, i32* %18, align 16, !tbaa !5
  br label %39

20:                                               ; preds = %10, %31
  %21 = phi i32 [ %33, %31 ], [ 2, %10 ]
  %22 = phi i32 [ %32, %31 ], [ %12, %10 ]
  %23 = urem i32 %11, %21
  %24 = icmp eq i32 %23, 0
  br i1 %24, label %35, label %25

25:                                               ; preds = %20
  %26 = icmp eq i32 %21, %13
  br i1 %26, label %27, label %31

27:                                               ; preds = %25
  %28 = sext i32 %22 to i64
  %29 = getelementptr inbounds [10000 x i32], [10000 x i32]* %2, i64 0, i64 %28
  store i32 %11, i32* %29, align 4, !tbaa !5
  %30 = add nsw i32 %22, 1
  br label %31

31:                                               ; preds = %27, %25
  %32 = phi i32 [ %22, %25 ], [ %30, %27 ]
  %33 = add nuw nsw i32 %21, 1
  %34 = icmp eq i32 %33, %11
  br i1 %34, label %35, label %20, !llvm.loop !9

35:                                               ; preds = %31, %20
  %36 = phi i32 [ %32, %31 ], [ %22, %20 ]
  %37 = add nuw i32 %11, 1
  %38 = icmp eq i32 %11, %6
  br i1 %38, label %14, label %10, !llvm.loop !11

39:                                               ; preds = %16, %48
  %40 = phi i32 [ %19, %16 ], [ %43, %48 ]
  %41 = phi i64 [ 1, %16 ], [ %49, %48 ]
  %42 = getelementptr inbounds [10000 x i32], [10000 x i32]* %2, i64 0, i64 %41
  %43 = load i32, i32* %42, align 4, !tbaa !5
  %44 = sub nsw i32 %43, %40
  %45 = icmp eq i32 %44, 2
  br i1 %45, label %46, label %48

46:                                               ; preds = %39
  %47 = call i32 (i8*, ...) @printf(i8* nonnull dereferenceable(1) getelementptr inbounds ([7 x i8], [7 x i8]* @.str.2, i64 0, i64 0), i32 %40, i32 %43)
  br label %48

48:                                               ; preds = %39, %46
  %49 = add nuw nsw i64 %41, 1
  %50 = icmp eq i64 %49, %17
  br i1 %50, label %51, label %39, !llvm.loop !12

51:                                               ; preds = %48, %14, %8
  call void @llvm.lifetime.end.p0i8(i64 40000, i8* nonnull %4) #3
  call void @llvm.lifetime.end.p0i8(i64 4, i8* nonnull %3) #3
  ret i32 0
}

; Function Attrs: argmemonly mustprogress nofree nosync nounwind willreturn
declare void @llvm.lifetime.start.p0i8(i64 immarg, i8* nocapture) #1

; Function Attrs: nofree nounwind
declare noundef i32 @__isoc99_scanf(i8* nocapture noundef readonly, ...) local_unnamed_addr #2

; Function Attrs: nofree nounwind
declare noundef i32 @printf(i8* nocapture noundef readonly, ...) local_unnamed_addr #2

; Function Attrs: argmemonly mustprogress nofree nosync nounwind willreturn
declare void @llvm.lifetime.end.p0i8(i64 immarg, i8* nocapture) #1


!llvm.module.flags = !{!0, !1, !2, !3}
!llvm.ident = !{!4}

!0 = !{i32 1, !"wchar_size", i32 4}
!1 = !{i32 7, !"PIC Level", i32 2}
!2 = !{i32 7, !"PIE Level", i32 2}
!3 = !{i32 7, !"uwtable", i32 1}
!4 = !{!"clang version 13.0.0"}
!5 = !{!6, !6, i64 0}
!6 = !{!"int", !7, i64 0}
!7 = !{!"omnipotent char", !8, i64 0}
!8 = !{!"Simple C/C++ TBAA"}
!9 = distinct !{!9, !10}
!10 = !{!"llvm.loop.mustprogress"}
!11 = distinct !{!11, !10}
!12 = distinct !{!12, !10}
